; Function Attrs: nounwind uwtable
define ptr @l_Array_foldlMUnsafe_fold___at___private_Lean_Meta_Tactic_Grind_PP_0__Lean_Meta_Grind_ppThresholds___spec__4(ptr noundef %0, ptr noundef readonly captures(none) %1, i64 noundef %2, i64 noundef %3, ptr noundef %4) local_unnamed_addr #0 {
  %.not37 = icmp eq i64 %2, %3
  br i1 %.not37, label %._crit_edge, label %.lr.ph

.lr.ph:                                           ; preds = %5
  %6 = getelementptr inbounds nuw i8, ptr %1, i64 24
  %7 = ptrtoint ptr %0 to i64
  %8 = and i64 %7, 1
  %.not35 = icmp eq i64 %8, 0
  br i1 %.not35, label %.lr.ph.split.us, label %.lr.ph.split

.lr.ph.split.us:                                  ; preds = %.lr.ph, %lean_dec.exit.us
  %.01839.us = phi i64 [ %32, %lean_dec.exit.us ], [ %2, %.lr.ph ]
  %.02038.us = phi ptr [ %24, %lean_dec.exit.us ], [ %4, %.lr.ph ]
  %9 = getelementptr inbounds nuw [0 x ptr], ptr %6, i64 0, i64 %.01839.us
  %10 = load ptr, ptr %9, align 8, !tbaa !10
  %11 = ptrtoint ptr %10 to i64
  %12 = and i64 %11, 1
  %.not.i25.us = icmp eq i64 %12, 0
  br i1 %.not.i25.us, label %13, label %lean_array_uget.exit.us

13:                                               ; preds = %.lr.ph.split.us
  %.val.i.i.us = load i32, ptr %10, align 4, !tbaa !4
  %14 = icmp sgt i32 %.val.i.i.us, 0
  br i1 %14, label %17, label %15, !prof !9

15:                                               ; preds = %13
  %.not.i.i.us = icmp eq i32 %.val.i.i.us, 0
  br i1 %.not.i.i.us, label %lean_array_uget.exit.us, label %16

16:                                               ; preds = %15
  tail call void @lean_inc_ref_cold(ptr noundef nonnull %10) #4
  br label %lean_array_uget.exit.us

17:                                               ; preds = %13
  %18 = add nuw i32 %.val.i.i.us, 1
  store i32 %18, ptr %10, align 4, !tbaa !4
  br label %lean_array_uget.exit.us

lean_array_uget.exit.us:                          ; preds = %17, %16, %15, %.lr.ph.split.us
  %.val.i.us = load i32, ptr %0, align 4, !tbaa !4
  %19 = icmp sgt i32 %.val.i.us, 0
  br i1 %19, label %22, label %20, !prof !9

20:                                               ; preds = %lean_array_uget.exit.us
  %.not.i26.us = icmp eq i32 %.val.i.us, 0
  br i1 %.not.i26.us, label %lean_inc.exit.us, label %21

21:                                               ; preds = %20
  tail call void @lean_inc_ref_cold(ptr noundef nonnull %0) #4
  br label %lean_inc.exit.us

22:                                               ; preds = %lean_array_uget.exit.us
  %23 = add nuw i32 %.val.i.us, 1
  store i32 %23, ptr %0, align 4, !tbaa !4
  br label %lean_inc.exit.us

lean_inc.exit.us:                                 ; preds = %22, %21, %20
  %24 = tail call ptr @l___private_Lean_Data_PersistentArray_0__Lean_PersistentArray_foldlMAux___at___private_Lean_Meta_Tactic_Grind_PP_0__Lean_Meta_Grind_ppThresholds___spec__3(ptr noundef nonnull %0, ptr noundef %10, ptr noundef %.02038.us)
  br i1 %.not.i25.us, label %25, label %lean_dec.exit.us

25:                                               ; preds = %lean_inc.exit.us
  %26 = load i32, ptr %10, align 4, !tbaa !4
  %27 = icmp sgt i32 %26, 1
  br i1 %27, label %30, label %28, !prof !9

28:                                               ; preds = %25
  %.not.i.us = icmp eq i32 %26, 0
  br i1 %.not.i.us, label %lean_dec.exit.us, label %29

29:                                               ; preds = %28
  tail call void @lean_dec_ref_cold(ptr noundef nonnull %10) #4
  br label %lean_dec.exit.us

30:                                               ; preds = %25
  %31 = add nsw i32 %26, -1
  store i32 %31, ptr %10, align 4, !tbaa !4
  br label %lean_dec.exit.us

lean_dec.exit.us:                                 ; preds = %30, %29, %28, %lean_inc.exit.us
  %32 = add i64 %.01839.us, 1
  %.not.us = icmp eq i64 %32, %3
  br i1 %.not.us, label %._crit_edge.thread, label %.lr.ph.split.us

.lr.ph.split:                                     ; preds = %.lr.ph, %lean_dec.exit
  %.01839 = phi i64 [ %60, %lean_dec.exit ], [ %2, %.lr.ph ]
  %.02038 = phi ptr [ %59, %lean_dec.exit ], [ %4, %.lr.ph ]
  %33 = getelementptr inbounds nuw [0 x ptr], ptr %6, i64 0, i64 %.01839
  %34 = load ptr, ptr %33, align 8, !tbaa !10
  %35 = ptrtoint ptr %34 to i64
  %36 = and i64 %35, 1
  %.not.i25 = icmp eq i64 %36, 0
  br i1 %.not.i25, label %37, label %lean_array_uget.exit

37:                                               ; preds = %.lr.ph.split
  %.val.i.i = load i32, ptr %34, align 4, !tbaa !4
  %38 = icmp sgt i32 %.val.i.i, 0
  br i1 %38, label %39, label %41, !prof !9

39:                                               ; preds = %37
  %40 = add nuw i32 %.val.i.i, 1
  store i32 %40, ptr %34, align 4, !tbaa !4
  br label %44

41:                                               ; preds = %37
  %.not.i.i = icmp eq i32 %.val.i.i, 0
  br i1 %.not.i.i, label %44, label %42

42:                                               ; preds = %41
  tail call void @lean_inc_ref_cold(ptr noundef nonnull %34) #4
  br label %44

lean_array_uget.exit:                             ; preds = %.lr.ph.split
  %43 = tail call ptr @l___private_Lean_Data_PersistentArray_0__Lean_PersistentArray_foldlMAux___at___private_Lean_Meta_Tactic_Grind_PP_0__Lean_Meta_Grind_ppThresholds___spec__3(ptr noundef %0, ptr noundef %34, ptr noundef %.02038)
  br label %lean_dec.exit

44:                                               ; preds = %39, %41, %42
  %45 = tail call ptr @l___private_Lean_Data_PersistentArray_0__Lean_PersistentArray_foldlMAux___at___private_Lean_Meta_Tactic_Grind_PP_0__Lean_Meta_Grind_ppThresholds___spec__3(ptr noundef %0, ptr noundef nonnull %34, ptr noundef %.02038)
  %46 = load i32, ptr %34, align 4, !tbaa !4
  %47 = icmp sgt i32 %46, 1
  br i1 %47, label %48, label %50, !prof !9

48:                                               ; preds = %44
  %49 = add nsw i32 %46, -1
  store i32 %49, ptr %34, align 4, !tbaa !4
  br label %lean_dec.exit

50:                                               ; preds = %44
  %.not.i = icmp eq i32 %46, 0
  br i1 %.not.i, label %lean_dec.exit, label %51

51:                                               ; preds = %50
  tail call void @lean_dec_ref_cold(ptr noundef nonnull %34) #4
  br label %lean_dec.exit

._crit_edge:                                      ; preds = %5
  %.pre = ptrtoint ptr %0 to i64
  %.pre42 = and i64 %.pre, 1
  %52 = icmp eq i64 %.pre42, 0
  br i1 %52, label %._crit_edge.thread, label %._crit_edge.thread48

._crit_edge.thread:                               ; preds = %lean_dec.exit.us, %._crit_edge
  %.020.lcssa47 = phi ptr [ %4, %._crit_edge ], [ %24, %lean_dec.exit.us ]
  %53 = load i32, ptr %0, align 4, !tbaa !4
  %54 = icmp sgt i32 %53, 1
  br i1 %54, label %55, label %57, !prof !9

55:                                               ; preds = %._crit_edge.thread
  %56 = add nsw i32 %53, -1
  store i32 %56, ptr %0, align 4, !tbaa !4
  br label %._crit_edge.thread48

57:                                               ; preds = %._crit_edge.thread
  %.not.i23 = icmp eq i32 %53, 0
  br i1 %.not.i23, label %._crit_edge.thread48, label %58

58:                                               ; preds = %57
  tail call void @lean_dec_ref_cold(ptr noundef nonnull %0) #4
  br label %._crit_edge.thread48

lean_dec.exit:                                    ; preds = %lean_array_uget.exit, %48, %50, %51
  %59 = phi ptr [ %43, %lean_array_uget.exit ], [ %45, %48 ], [ %45, %50 ], [ %45, %51 ]
  %60 = add i64 %.01839, 1
  %.not = icmp eq i64 %60, %3
  br i1 %.not, label %._crit_edge.thread48, label %.lr.ph.split

._crit_edge.thread48:                             ; preds = %lean_dec.exit, %58, %57, %55, %._crit_edge
  %.020.lcssa46 = phi ptr [ %.020.lcssa47, %58 ], [ %.020.lcssa47, %57 ], [ %.020.lcssa47, %55 ], [ %4, %._crit_edge ], [ %59, %lean_dec.exit ]
  ret ptr %.020.lcssa46
}